; Function Attrs: mustprogress uwtable
define void @_ZNK10open_spiel13cliff_walking17CliffWalkingState5CloneEv(ptr dead_on_unwind noalias writable writeonly sret(%"class.std::unique_ptr") align 8 captures(none) %0, ptr noundef nonnull align 8 dereferenceable(84) %1) unnamed_addr #3 align 2 personality ptr @__gxx_personality_v0 {
  %3 = tail call noalias noundef nonnull dereferenceable(88) ptr @_Znwm(i64 noundef 88) #26
  invoke void @_ZN10open_spiel5StateC2ERKS0_(ptr noundef nonnull align 8 dereferenceable(84) %3, ptr noundef nonnull align 8 dereferenceable(84) %1)
          to label %4 unwind label %7

4:                                                ; preds = %2
  store ptr getelementptr inbounds nuw inrange(-16, 304) (i8, ptr @_ZTVN10open_spiel13cliff_walking17CliffWalkingStateE, i64 16), ptr %3, align 8
  %5 = getelementptr inbounds nuw i8, ptr %3, i64 60
  %6 = getelementptr inbounds nuw i8, ptr %1, i64 60
  tail call void @llvm.memcpy.p0.p0.i64(ptr noundef nonnull align 4 dereferenceable(24) %5, ptr noundef nonnull align 4 dereferenceable(24) %6, i64 24, i1 false)
  store ptr %3, ptr %0, align 8
  ret void

7:                                                ; preds = %2
  %8 = landingpad { ptr, i32 }
          cleanup
  tail call void @_ZdlPvm(ptr noundef nonnull %3, i64 noundef 88) #27
  resume { ptr, i32 } %8
}